target datalayout = "e-m:e-p270:32:32-p271:32:32-p272:64:64-i64:64-i128:128-f80:128-n8:16:32:64-S128"
target triple = "x86_64-pc-linux-gnu"

%struct.anon.1 = type { ptr, ptr }

@hf_ipmi_se_12_byte1 = internal global i32 0, align 4
@hf_ipmi_se_12_param = internal global i32 0, align 4
@hf_ipmi_se_12_data = internal global i32 0, align 4
@ett_ipmi_se_12_byte1 = internal global i32 0, align 4
@.str.508 = private unnamed_addr constant [9 x i8] c"Reserved\00", align 1
@.str.655 = private unnamed_addr constant [4 x i8] c"OEM\00", align 1
@.str.783 = private unnamed_addr constant [12 x i8] c"%s (0x%02x)\00", align 1
@.str.1139 = private unnamed_addr constant [32 x i8] c"Parameter selector: %s (0x%02x)\00", align 1
@.str.1140 = private unnamed_addr constant [33 x i8] c"Configuration parameter data: %s\00", align 1

; Function Attrs: null_pointer_is_valid sspstrong uwtable
define internal void @rq12(ptr noundef %0, ptr noundef %1, ptr noundef %2) #0 {
  %4 = alloca ptr, align 8
  %5 = alloca ptr, align 8
  %6 = alloca ptr, align 8
  %7 = alloca ptr, align 8
  %8 = alloca ptr, align 8
  %9 = alloca ptr, align 8
  %10 = alloca i8, align 1
  %11 = alloca ptr, align 8
  store ptr %0, ptr %4, align 8
  store ptr %1, ptr %5, align 8
  store ptr %2, ptr %6, align 8
  call void @llvm.lifetime.start.p0(i64 8, ptr %7) #5
  call void @llvm.lifetime.start.p0(i64 8, ptr %8) #5
  call void @llvm.lifetime.start.p0(i64 8, ptr %9) #5
  call void @llvm.lifetime.start.p0(i64 1, ptr %10) #5
  call void @llvm.lifetime.start.p0(i64 8, ptr %11) #5
  %12 = load ptr, ptr %4, align 8
  %13 = call zeroext i8 @tvb_get_uint8(ptr noundef %12, i32 noundef 0)
  %14 = zext i8 %13 to i32
  %15 = and i32 %14, 127
  %16 = trunc i32 %15 to i8
  store i8 %16, ptr %10, align 1
  %17 = load i8, ptr %10, align 1
  %18 = zext i8 %17 to i64
  %19 = icmp ult i64 %18, 16
  br i1 %19, label %20, label %26

20:                                               ; preds = %3
  %21 = load i8, ptr %10, align 1
  %22 = zext i8 %21 to i64
  %23 = getelementptr [16 x %struct.anon.1], ptr @conf_params, i64 0, i64 %22
  %24 = getelementptr inbounds nuw %struct.anon.1, ptr %23, i32 0, i32 1
  %25 = load ptr, ptr %24, align 8
  store ptr %25, ptr %11, align 8
  br label %37

26:                                               ; preds = %3
  %27 = load i8, ptr %10, align 1
  %28 = zext i8 %27 to i32
  %29 = icmp sge i32 %28, 96
  br i1 %29, label %30, label %35

30:                                               ; preds = %26
  %31 = load i8, ptr %10, align 1
  %32 = zext i8 %31 to i32
  %33 = icmp sle i32 %32, 127
  br i1 %33, label %34, label %35

34:                                               ; preds = %30
  store ptr @.str.655, ptr %11, align 8
  br label %36

35:                                               ; preds = %30, %26
  store ptr @.str.508, ptr %11, align 8
  br label %36

36:                                               ; preds = %35, %34
  br label %37

37:                                               ; preds = %36, %20
  %38 = load ptr, ptr %6, align 8
  %39 = load i32, ptr @hf_ipmi_se_12_byte1, align 4
  %40 = load ptr, ptr %4, align 8
  %41 = load i8, ptr %10, align 1
  %42 = zext i8 %41 to i32
  %43 = load ptr, ptr %11, align 8
  %44 = load i8, ptr %10, align 1
  %45 = zext i8 %44 to i32
  %46 = call ptr (ptr, i32, ptr, i32, i32, i32, ptr, ...) @proto_tree_add_uint_format_value(ptr noundef %38, i32 noundef %39, ptr noundef %40, i32 noundef 0, i32 noundef 1, i32 noundef %42, ptr noundef @.str.783, ptr noundef %43, i32 noundef %45)
  store ptr %46, ptr %7, align 8
  %47 = load ptr, ptr %7, align 8
  %48 = load i32, ptr @ett_ipmi_se_12_byte1, align 4
  %49 = call ptr @proto_item_add_subtree(ptr noundef %47, i32 noundef %48)
  store ptr %49, ptr %8, align 8
  %50 = load ptr, ptr %8, align 8
  %51 = load i32, ptr @hf_ipmi_se_12_param, align 4
  %52 = load ptr, ptr %4, align 8
  %53 = load i8, ptr %10, align 1
  %54 = zext i8 %53 to i32
  %55 = load ptr, ptr %11, align 8
  %56 = load i8, ptr %10, align 1
  %57 = zext i8 %56 to i32
  %58 = call ptr (ptr, i32, ptr, i32, i32, i32, ptr, ...) @proto_tree_add_uint_format_value(ptr noundef %50, i32 noundef %51, ptr noundef %52, i32 noundef 0, i32 noundef 1, i32 noundef %54, ptr noundef @.str.1139, ptr noundef %55, i32 noundef %57)
  %59 = load i8, ptr %10, align 1
  %60 = zext i8 %59 to i64
  %61 = icmp ult i64 %60, 16
  br i1 %61, label %62, label %73

62:                                               ; preds = %37
  %63 = load ptr, ptr %4, align 8
  %64 = call ptr @tvb_new_subset_remaining(ptr noundef %63, i32 noundef 1)
  store ptr %64, ptr %9, align 8
  %65 = load i8, ptr %10, align 1
  %66 = zext i8 %65 to i64
  %67 = getelementptr [16 x %struct.anon.1], ptr @conf_params, i64 0, i64 %66
  %68 = getelementptr inbounds nuw %struct.anon.1, ptr %67, i32 0, i32 0
  %69 = load ptr, ptr %68, align 16
  %70 = load ptr, ptr %9, align 8
  %71 = load ptr, ptr %5, align 8
  %72 = load ptr, ptr %6, align 8
  call void %69(ptr noundef %70, ptr noundef %71, ptr noundef %72)
  br label %79

73:                                               ; preds = %37
  %74 = load ptr, ptr %6, align 8
  %75 = load i32, ptr @hf_ipmi_se_12_data, align 4
  %76 = load ptr, ptr %4, align 8
  %77 = load ptr, ptr %11, align 8
  %78 = call ptr (ptr, i32, ptr, i32, i32, ptr, ...) @proto_tree_add_none_format(ptr noundef %74, i32 noundef %75, ptr noundef %76, i32 noundef 1, i32 noundef -1, ptr noundef @.str.1140, ptr noundef %77)
  br label %79

79:                                               ; preds = %73, %62
  call void @llvm.lifetime.end.p0(i64 8, ptr %11) #5
  call void @llvm.lifetime.end.p0(i64 1, ptr %10) #5
  call void @llvm.lifetime.end.p0(i64 8, ptr %9) #5
  call void @llvm.lifetime.end.p0(i64 8, ptr %8) #5
  call void @llvm.lifetime.end.p0(i64 8, ptr %7) #5
  ret void
}