; Function Attrs: null_pointer_is_valid sspstrong uwtable
define internal void @rq12(ptr noundef %0, ptr noundef %1, ptr noundef %2) #0 {
  %4 = tail call zeroext i8 @tvb_get_uint8(ptr noundef %0, i32 noundef 0)
  %5 = and i8 %4, 127
  %6 = zext nneg i8 %5 to i64
  %7 = icmp samesign ult i8 %5, 16
  br i1 %7, label %8, label %11

8:                                                ; preds = %3
  %9 = getelementptr [16 x %struct.anon.1], ptr @conf_params, i64 0, i64 %6, i32 1
  %10 = load ptr, ptr %9, align 8
  br label %13

11:                                               ; preds = %3
  %12 = icmp samesign ugt i8 %5, 95
  %.str.655..str.508 = select i1 %12, ptr @.str.655, ptr @.str.508
  br label %13

13:                                               ; preds = %11, %8
  %.0 = phi ptr [ %10, %8 ], [ %.str.655..str.508, %11 ]
  %14 = load i32, ptr @hf_ipmi_se_12_byte1, align 4
  %15 = zext nneg i8 %5 to i32
  %16 = tail call ptr (ptr, i32, ptr, i32, i32, i32, ptr, ...) @proto_tree_add_uint_format_value(ptr noundef %2, i32 noundef %14, ptr noundef %0, i32 noundef 0, i32 noundef 1, i32 noundef %15, ptr noundef nonnull @.str.783, ptr noundef %.0, i32 noundef %15)
  %17 = load i32, ptr @ett_ipmi_se_12_byte1, align 4
  %18 = tail call ptr @proto_item_add_subtree(ptr noundef %16, i32 noundef %17)
  %19 = load i32, ptr @hf_ipmi_se_12_param, align 4
  %20 = tail call ptr (ptr, i32, ptr, i32, i32, i32, ptr, ...) @proto_tree_add_uint_format_value(ptr noundef %18, i32 noundef %19, ptr noundef %0, i32 noundef 0, i32 noundef 1, i32 noundef %15, ptr noundef nonnull @.str.1139, ptr noundef %.0, i32 noundef %15)
  br i1 %7, label %21, label %25

21:                                               ; preds = %13
  %22 = tail call ptr @tvb_new_subset_remaining(ptr noundef %0, i32 noundef 1)
  %23 = getelementptr [16 x %struct.anon.1], ptr @conf_params, i64 0, i64 %6
  %24 = load ptr, ptr %23, align 16
  tail call void %24(ptr noundef %22, ptr noundef %1, ptr noundef %2)
  br label %28

25:                                               ; preds = %13
  %26 = load i32, ptr @hf_ipmi_se_12_data, align 4
  %27 = tail call ptr (ptr, i32, ptr, i32, i32, ptr, ...) @proto_tree_add_none_format(ptr noundef %2, i32 noundef %26, ptr noundef %0, i32 noundef 1, i32 noundef -1, ptr noundef nonnull @.str.1140, ptr noundef %.0)
  br label %28

28:                                               ; preds = %25, %21
  ret void
}